; Function Attrs: null_pointer_is_valid sspstrong uwtable
define internal fastcc range(i32 0, 16) i32 @dissect_rsl_paging_package_number(ptr noundef %0, ptr noundef %1, ptr noundef captures(none) %2) unnamed_addr #0 {
  %4 = load i32, ptr %2, align 4
  %5 = load i32, ptr @ett_ie_paging_package_number, align 4
  %6 = tail call ptr @proto_tree_add_subtree(ptr noundef %1, ptr noundef %0, i32 noundef %4, i32 noundef 1, i32 noundef %5, ptr noundef null, ptr noundef nonnull @.str.826)
  %7 = load i32, ptr @hf_rsl_paging_spare, align 4
  %8 = load i32, ptr %2, align 4
  %9 = tail call ptr @proto_tree_add_item(ptr noundef %6, i32 noundef %7, ptr noundef %0, i32 noundef %8, i32 noundef 1, i32 noundef 0)
  %10 = load i32, ptr %2, align 4
  %11 = tail call zeroext i8 @tvb_get_uint8(ptr noundef %0, i32 noundef %10)
  %12 = and i8 %11, 15
  %13 = load i32, ptr @hf_rsl_paging_msg_no, align 4
  %14 = load i32, ptr %2, align 4
  %15 = tail call ptr @proto_tree_add_item(ptr noundef %6, i32 noundef %13, ptr noundef %0, i32 noundef %14, i32 noundef 1, i32 noundef 0)
  %16 = load i32, ptr %2, align 4
  %17 = add i32 %16, 1
  store i32 %17, ptr %2, align 4
  %18 = zext nneg i8 %12 to i32
  ret i32 %18
}